target datalayout = "e-m:e-p270:32:32-p271:32:32-p272:64:64-i64:64-i128:128-f80:128-n8:16:32:64-S128"
target triple = "x86_64-pc-linux-gnu"

%struct.slurm_conf_t = type { i64, ptr, i16, ptr, ptr, ptr, ptr, ptr, i16, ptr, ptr, ptr, ptr, ptr, ptr, ptr, i16, ptr, ptr, ptr, ptr, i16, ptr, ptr, ptr, i64, ptr, ptr, ptr, ptr, i16, ptr, ptr, i16, i32, ptr, i32, ptr, i32, i32, ptr, ptr, i64, i64, ptr, i16, i16, ptr, i32, i32, ptr, i32, ptr, i32, i16, i16, i16, ptr, i16, i16, ptr, ptr, i32, i16, i16, ptr, i32, i16, ptr, ptr, ptr, ptr, i16, ptr, ptr, ptr, ptr, i32, ptr, ptr, ptr, ptr, i16, i16, ptr, i32, i32, i32, i16, i16, ptr, ptr, i16, ptr, ptr, i32, i32, i32, i32, i32, i64, i32, i32, i16, ptr, ptr, i32, ptr, ptr, ptr, i16, i32, ptr, ptr, i16, ptr, ptr, i32, i16, ptr, ptr, ptr, ptr, i32, i32, i16, i16, i32, ptr, i16, ptr, i32, i32, i32, i32, i32, i32, ptr, i16, ptr, ptr, i32, i16, ptr, i32, i16, i16, ptr, ptr, ptr, i16, ptr, ptr, ptr, ptr, i16, i16, ptr, i16, ptr, i16, ptr, i16, ptr, i16, ptr, ptr, ptr, ptr, i16, ptr, ptr, ptr, i32, ptr, i32, ptr, ptr, i16, ptr, ptr, i32, i16, ptr, ptr, i16, i16, ptr, i16, ptr, ptr, ptr, i32, ptr, i16, i16, ptr, ptr, ptr, ptr, ptr, ptr, ptr, ptr, i16, i32, i16, ptr, ptr, ptr, ptr, i32, ptr, ptr, ptr, i16, ptr, ptr, ptr, i16, ptr, i16, ptr, i16, i16, ptr }
%struct.job_record = type { i32, ptr, ptr, ptr, ptr, i16, i32, i32, i32, ptr, i32, ptr, ptr, i16, ptr, double, i64, ptr, ptr, ptr, ptr, ptr, ptr, i32, ptr, i32, i64, i64, i32, i32, ptr, i16, i64, i64, i8, i32, ptr, ptr, ptr, ptr, ptr, ptr, ptr, ptr, i32, ptr, ptr, i32, ptr, i32, ptr, i32, ptr, i32, ptr, ptr, ptr, ptr, ptr, ptr, i32, i16, i64, ptr, ptr, ptr, ptr, %struct.acct_policy_limit_set_t, i16, ptr, ptr, ptr, ptr, ptr, i32, ptr, ptr, ptr, ptr, ptr, i32, i32, ptr, ptr, ptr, i16, ptr, ptr, i8, ptr, ptr, i64, i64, i8, i32, i32, i8, i32, ptr, i32, i64, i32, ptr, ptr, ptr, i8, i16, i64, i32, ptr, ptr, ptr, ptr, ptr, i16, i32, ptr, ptr, ptr, ptr, i32, ptr, i32, i16, i64, ptr, i32, i32, ptr, i64, ptr, ptr, i64, i32, i32, i64, i32, i32, ptr, ptr, ptr, ptr, ptr, ptr, ptr, ptr, ptr, ptr, ptr, ptr, i32, ptr, i16, i16, i16, i16, ptr, i32, i32, i8, i64 }
%struct.acct_policy_limit_set_t = type { i16, i16, ptr }
%struct.job_state_cached_t = type { i32, i32, i32, i32, i32, ptr }
%struct.job_array_struct = type { i32, ptr, ptr, i32, i32, i32, i32, i32, i32, i32 }

@slurm_conf = external global %struct.slurm_conf_t, align 8
@.str.9 = private unnamed_addr constant [9 x i8] c"_on_free\00", align 1
@.str.38 = private unnamed_addr constant [30 x i8] c"TRACE_JOBS: %s: %pJ releasing\00", align 1

; Function Attrs: nounwind uwtable
define internal void @_on_free(ptr noundef %0, ptr noundef %1) #0 {
  %3 = alloca ptr, align 8
  %4 = alloca ptr, align 8
  %5 = alloca ptr, align 8
  %6 = alloca ptr, align 8
  %7 = alloca %struct.job_record, align 8
  %8 = alloca %struct.job_array_struct, align 8
  store ptr %0, ptr %3, align 8
  store ptr %1, ptr %4, align 8
  call void @llvm.lifetime.start.p0(i64 8, ptr %5) #8
  %9 = load ptr, ptr %3, align 8
  store ptr %9, ptr %5, align 8
  call void @llvm.lifetime.start.p0(i64 8, ptr %6) #8
  %10 = load ptr, ptr %4, align 8
  store ptr %10, ptr %6, align 8
  br label %11

11:                                               ; preds = %2
  %12 = load i64, ptr getelementptr inbounds nuw (%struct.slurm_conf_t, ptr @slurm_conf, i32 0, i32 42), align 8
  %13 = and i64 %12, 268435456
  %14 = icmp ne i64 %13, 0
  br i1 %14, label %15, label %63

15:                                               ; preds = %11
  br label %16

16:                                               ; preds = %15
  %17 = call i32 @get_log_level()
  %18 = icmp sge i32 %17, 4
  br i1 %18, label %19, label %60

19:                                               ; preds = %16
  call void @llvm.memset.p0.i64(ptr align 8 %7, i8 0, i64 1152, i1 false)
  %20 = getelementptr inbounds nuw %struct.job_record, ptr %7, i32 0, i32 0
  store i32 -256427732, ptr %20, align 8
  %21 = getelementptr inbounds nuw %struct.job_record, ptr %7, i32 0, i32 7
  %22 = load ptr, ptr %5, align 8
  %23 = getelementptr inbounds nuw %struct.job_state_cached_t, ptr %22, i32 0, i32 3
  %24 = load i32, ptr %23, align 4
  store i32 %24, ptr %21, align 8
  %25 = getelementptr inbounds nuw %struct.job_record, ptr %7, i32 0, i32 8
  %26 = load ptr, ptr %5, align 8
  %27 = getelementptr inbounds nuw %struct.job_state_cached_t, ptr %26, i32 0, i32 4
  %28 = load i32, ptr %27, align 8
  store i32 %28, ptr %25, align 4
  %29 = getelementptr inbounds nuw %struct.job_record, ptr %7, i32 0, i32 9
  %30 = load ptr, ptr %5, align 8
  %31 = getelementptr inbounds nuw %struct.job_state_cached_t, ptr %30, i32 0, i32 5
  %32 = load ptr, ptr %31, align 8
  %33 = icmp ne ptr %32, null
  br i1 %33, label %35, label %34

34:                                               ; preds = %19
  br label %46

35:                                               ; preds = %19
  call void @llvm.memset.p0.i64(ptr align 8 %8, i8 0, i64 56, i1 false)
  %36 = getelementptr inbounds nuw %struct.job_array_struct, ptr %8, i32 0, i32 0
  %37 = load ptr, ptr %5, align 8
  %38 = getelementptr inbounds nuw %struct.job_state_cached_t, ptr %37, i32 0, i32 5
  %39 = load ptr, ptr %38, align 8
  %40 = call i64 @bit_size(ptr noundef %39)
  %41 = trunc i64 %40 to i32
  store i32 %41, ptr %36, align 8
  %42 = getelementptr inbounds nuw %struct.job_array_struct, ptr %8, i32 0, i32 1
  %43 = load ptr, ptr %5, align 8
  %44 = getelementptr inbounds nuw %struct.job_state_cached_t, ptr %43, i32 0, i32 5
  %45 = load ptr, ptr %44, align 8
  store ptr %45, ptr %42, align 8
  br label %46

46:                                               ; preds = %35, %34
  %47 = phi ptr [ null, %34 ], [ %8, %35 ]
  store ptr %47, ptr %29, align 8
  %48 = getelementptr inbounds nuw %struct.job_record, ptr %7, i32 0, i32 49
  %49 = load ptr, ptr %5, align 8
  %50 = getelementptr inbounds nuw %struct.job_state_cached_t, ptr %49, i32 0, i32 2
  %51 = load i32, ptr %50, align 8
  store i32 %51, ptr %48, align 8
  %52 = getelementptr inbounds nuw %struct.job_record, ptr %7, i32 0, i32 53
  %53 = load ptr, ptr %5, align 8
  %54 = getelementptr inbounds nuw %struct.job_state_cached_t, ptr %53, i32 0, i32 0
  %55 = load i32, ptr %54, align 8
  store i32 %55, ptr %52, align 8
  %56 = getelementptr inbounds nuw %struct.job_record, ptr %7, i32 0, i32 60
  %57 = load ptr, ptr %5, align 8
  %58 = getelementptr inbounds nuw %struct.job_state_cached_t, ptr %57, i32 0, i32 1
  %59 = load i32, ptr %58, align 4
  store i32 %59, ptr %56, align 8
  call void (i32, ptr, ...) @log_var(i32 noundef 4, ptr noundef @.str.38, ptr noundef @.str.9, ptr noundef %7)
  br label %60

60:                                               ; preds = %46, %16
  br label %61

61:                                               ; preds = %60
  br label %62

62:                                               ; preds = %61
  br label %63

63:                                               ; preds = %62, %11
  br label %64

64:                                               ; preds = %63
  br label %65

65:                                               ; preds = %64
  br label %66

66:                                               ; preds = %65
  %67 = load ptr, ptr %5, align 8
  %68 = getelementptr inbounds nuw %struct.job_state_cached_t, ptr %67, i32 0, i32 5
  %69 = load ptr, ptr %68, align 8
  %70 = icmp ne ptr %69, null
  br i1 %70, label %71, label %74

71:                                               ; preds = %66
  %72 = load ptr, ptr %5, align 8
  %73 = getelementptr inbounds nuw %struct.job_state_cached_t, ptr %72, i32 0, i32 5
  call void @slurm_bit_free(ptr noundef %73)
  br label %74

74:                                               ; preds = %71, %66
  %75 = load ptr, ptr %5, align 8
  %76 = getelementptr inbounds nuw %struct.job_state_cached_t, ptr %75, i32 0, i32 5
  store ptr null, ptr %76, align 8
  br label %77

77:                                               ; preds = %74
  br label %78

78:                                               ; preds = %77
  call void @llvm.lifetime.end.p0(i64 8, ptr %6) #8
  call void @llvm.lifetime.end.p0(i64 8, ptr %5) #8
  ret void
}