; Function Attrs: nounwind uwtable
define internal void @_on_free(ptr noundef %0, ptr readnone captures(none) %1) #0 {
  %3 = alloca %struct.job_record, align 8
  %4 = alloca %struct.job_array_struct, align 8
  %5 = load i64, ptr getelementptr inbounds nuw (i8, ptr @slurm_conf, i64 320), align 8
  %6 = and i64 %5, 268435456
  %.not = icmp eq i64 %6, 0
  br i1 %.not, label %35, label %7

7:                                                ; preds = %2
  %8 = tail call i32 @get_log_level() #9
  %9 = icmp sgt i32 %8, 3
  br i1 %9, label %10, label %35

10:                                               ; preds = %7
  call void @llvm.memset.p0.i64(ptr noundef nonnull align 8 dereferenceable(1152) %3, i8 0, i64 1152, i1 false)
  store i32 -256427732, ptr %3, align 8
  %11 = getelementptr inbounds nuw i8, ptr %3, i64 48
  %12 = getelementptr inbounds nuw i8, ptr %0, i64 12
  %13 = load i32, ptr %12, align 4
  store i32 %13, ptr %11, align 8
  %14 = getelementptr inbounds nuw i8, ptr %3, i64 52
  %15 = getelementptr inbounds nuw i8, ptr %0, i64 16
  %16 = load i32, ptr %15, align 8
  store i32 %16, ptr %14, align 4
  %17 = getelementptr inbounds nuw i8, ptr %3, i64 56
  %18 = getelementptr inbounds nuw i8, ptr %0, i64 24
  %19 = load ptr, ptr %18, align 8
  %.not13 = icmp eq ptr %19, null
  br i1 %.not13, label %25, label %20

20:                                               ; preds = %10
  call void @llvm.memset.p0.i64(ptr noundef nonnull align 8 dereferenceable(56) %4, i8 0, i64 56, i1 false)
  %21 = tail call i64 @bit_size(ptr noundef nonnull %19) #9
  %22 = trunc i64 %21 to i32
  store i32 %22, ptr %4, align 8
  %23 = getelementptr inbounds nuw i8, ptr %4, i64 8
  %24 = load ptr, ptr %18, align 8
  store ptr %24, ptr %23, align 8
  br label %25

25:                                               ; preds = %10, %20
  %26 = phi ptr [ %4, %20 ], [ null, %10 ]
  store ptr %26, ptr %17, align 8
  %27 = getelementptr inbounds nuw i8, ptr %3, i64 360
  %28 = getelementptr inbounds nuw i8, ptr %0, i64 8
  %29 = load i32, ptr %28, align 8
  store i32 %29, ptr %27, align 8
  %30 = getelementptr inbounds nuw i8, ptr %3, i64 392
  %31 = load i32, ptr %0, align 8
  store i32 %31, ptr %30, align 8
  %32 = getelementptr inbounds nuw i8, ptr %3, i64 448
  %33 = getelementptr inbounds nuw i8, ptr %0, i64 4
  %34 = load i32, ptr %33, align 4
  store i32 %34, ptr %32, align 8
  call void (i32, ptr, ...) @log_var(i32 noundef 4, ptr noundef nonnull @.str.38, ptr noundef nonnull @.str.9, ptr noundef nonnull %3) #9
  br label %35

35:                                               ; preds = %2, %25, %7
  %36 = getelementptr inbounds nuw i8, ptr %0, i64 24
  %37 = load ptr, ptr %36, align 8
  %.not14 = icmp eq ptr %37, null
  br i1 %.not14, label %39, label %38

38:                                               ; preds = %35
  call void @slurm_bit_free(ptr noundef nonnull %36) #9
  br label %39

39:                                               ; preds = %38, %35
  store ptr null, ptr %36, align 8
  ret void
}